; Function Attrs: mustprogress uwtable
define hidden range(i32 0, 2) i32 @hb_ot_layout_has_substitution(ptr noundef %0) local_unnamed_addr #0 {
  %2 = getelementptr inbounds i8, ptr %0, i64 280
  %3 = tail call noundef ptr @_ZNK16hb_lazy_loader_tIN2OT18GSUB_accelerator_tE21hb_face_lazy_loader_tIS1_Lj25EE9hb_face_tLj25ES1_E10get_storedEv(ptr noundef nonnull align 8 dereferenceable(8) %2)
  %4 = load ptr, ptr %3, align 8
  %.not.i.i.i.i = icmp eq ptr %4, null
  %spec.select.i.i.i.i = select i1 %.not.i.i.i.i, ptr @_hb_NullPool, ptr %4
  %5 = getelementptr inbounds i8, ptr %spec.select.i.i.i.i, i64 16
  %6 = load ptr, ptr %5, align 8
  %7 = getelementptr inbounds i8, ptr %spec.select.i.i.i.i, i64 24
  %8 = load i32, ptr %7, align 8
  %9 = icmp ult i32 %8, 4
  %spec.select.i.i1.i.i = select i1 %9, ptr @_hb_NullPool, ptr %6
  %10 = load i8, ptr %spec.select.i.i1.i.i, align 1
  %11 = zext i8 %10 to i32
  %12 = getelementptr inbounds i8, ptr %spec.select.i.i1.i.i, i64 1
  %13 = load i8, ptr %12, align 1
  %14 = zext i8 %13 to i32
  %15 = shl nuw i32 %11, 24
  %16 = shl nuw nsw i32 %14, 16
  %17 = getelementptr inbounds i8, ptr %spec.select.i.i1.i.i, i64 2
  %18 = load i8, ptr %17, align 1
  %19 = zext i8 %18 to i32
  %20 = shl nuw nsw i32 %19, 8
  %21 = getelementptr inbounds i8, ptr %spec.select.i.i1.i.i, i64 3
  %22 = load i8, ptr %21, align 1
  %23 = zext i8 %22 to i32
  %24 = or disjoint i32 %16, %15
  %25 = or disjoint i32 %24, %23
  %26 = or disjoint i32 %25, %20
  %27 = icmp ne i32 %26, 0
  %28 = zext i1 %27 to i32
  ret i32 %28
}